Certificate:
    Data:
        Version: 3 (0x2)
        Serial Number:
            f0:66:e8:b1:6d:bd:39:5f
        Signature Algorithm: sha256WithRSAEncryption
        Issuer: C=DE, ST=Mecklenburg-Vorpommern, O=Opennet Initiative e.V., OU=Opennet CA, CN=opennet-root.ca.on/emailAddress=admin@opennet-initiative.de
        Validity
            Not Before: Dec 22 00:00:00 2013 GMT
            Not After : Dec 21 23:59:59 2023 GMT
        Subject: C=DE, ST=Mecklenburg-Vorpommern, O=Opennet Initiative e.V., OU=Opennet CA, CN=opennet-vpn-user.ca.on/emailAddress=admin@opennet-initiative.de
        Subject Public Key Info:
            Public Key Algorithm: rsaEncryption
            RSA Public Key: (2048 bit)
                Modulus (2048 bit):
                    00:bb:8b:1d:ab:4d:d8:ad:1d:38:5f:8e:ae:f6:9c:
                    e1:91:07:3d:e2:c1:81:9f:01:48:a6:0c:0e:fa:15:
                    e6:60:0e:8b:ec:6d:50:88:cd:21:c7:fb:dc:01:28:
                    65:4a:7e:f5:c5:d5:80:0a:4a:c8:6d:4d:bf:04:3a:
                    92:cd:0d:7a:ca:b3:48:73:34:19:33:f9:4a:52:8f:
                    f8:aa:39:13:8d:df:47:3b:cf:0b:be:ef:17:67:ea:
                    66:86:47:8b:b5:72:7b:56:77:93:3c:d6:68:86:6e:
                    6c:8b:c9:a4:89:59:bd:bb:c4:fe:4b:76:35:95:83:
                    05:12:df:5a:c1:17:0f:89:e4:c7:da:0b:f1:7c:b2:
                    fd:d2:b9:77:1f:55:a0:ad:3c:d6:63:fe:7e:fe:e3:
                    79:a3:e7:f3:e9:21:08:11:9b:50:67:35:19:f3:3f:
                    98:d6:d7:84:41:06:7a:1b:03:d5:c9:7e:5c:a8:e1:
                    66:12:32:e3:be:6e:7a:2a:ac:92:51:5d:32:2b:25:
                    74:ed:a1:45:d3:a3:14:69:6d:62:a9:12:85:5e:f8:
                    8a:0e:9d:f5:96:f3:51:51:61:95:88:72:bb:6e:ee:
                    82:e9:60:59:1f:1a:61:6e:da:e2:de:42:1a:95:da:
                    17:d5:0a:c2:83:46:e5:ce:a2:ac:e2:21:5a:29:53:
                    12:ed
                Exponent: 65537 (0x10001)
        X509v3 extensions:
            X509v3 Basic Constraints: critical
                CA:TRUE
            X509v3 Key Usage: 
                Certificate Sign, CRL Sign
            X509v3 CRL Distribution Points: 
                URI:http://ca.opennet-initiative.de/vpnuser.crl

            Netscape Cert Type: 
                SSL CA, S/MIME CA, Object Signing CA
            Netscape Base Url: 
                http://ca.opennet-initiative.de/
            Netscape Revocation Url: 
                http://ca.opennet-initiative.de/vpnuser.crl
            Netscape CA Revocation Url: 
                http://ca.opennet-initiative.de/vpnuser.crl
            Netscape CA Policy Url: 
                http://ca.opennet-initiative.de/
            Netscape Comment: 
                Opennet VPN User CA
            X509v3 Subject Key Identifier: 
                FA:75:C4:8D:8A:AA:D1:81:E1:29:15:A6:B4:55:E3:C0:32:05:F6:C7
            X509v3 Authority Key Identifier: 
                keyid:FA:DA:A6:25:24:2C:20:E7:E5:A3:5F:2F:9F:6B:C1:EA:19:1A:F8:C1
                DirName:/C=DE/ST=Mecklenburg-Vorpommern/O=Opennet Initiative e.V./OU=Opennet CA/CN=opennet-root.ca.on/emailAddress=admin@opennet-initiative.de
                serial:D0:94:11:CA:45:BA:B5:F1

    Signature Algorithm: sha256WithRSAEncryption
        7f:55:77:96:ec:90:7f:2e:e6:1b:cf:f4:a4:3a:3d:7f:2f:de:
        7a:4b:4f:57:b9:cb:e1:a8:7a:e1:05:70:f1:0b:0f:70:bb:35:
        84:f3:3e:5c:c9:63:5e:ef:42:f5:ea:94:9d:2b:f0:ae:a3:a7:
        15:00:b4:90:90:3a:47:ac:8c:5e:c4:1d:23:f1:c2:6b:b8:a0:
        9c:41:ff:c5:f0:fc:e4:db:67:b6:13:83:6d:c3:00:36:08:44:
        b3:34:4d:b6:51:e1:d5:c1:61:ad:25:49:dd:68:84:53:f1:e7:
        e7:93:17:01:49:c8:c0:3d:f5:43:bf:e0:94:1d:3f:90:d1:f1:
        54:19:1d:a4:ea:82:b8:72:48:93:41:b2:0d:11:ca:50:0c:5f:
        81:ff:c2:e2:be:e1:3d:c8:52:c6:68:6d:9b:97:e1:30:1b:d5:
        88:33:31:37:f6:c2:19:27:6d:e0:c9:00:69:06:1a:d3:91:bb:
        a1:a5:a1:7d:f5:b6:c0:d8:b3:71:6a:c5:ac:af:5e:be:ce:18:
        6c:60:9d:a8:94:66:40:96:87:d6:18:a0:58:43:ac:7a:43:d3:
        a5:57:41:de:c4:8c:67:95:3b:12:b8:3c:0e:06:3a:ee:c1:33:
        e8:70:ec:cf:d2:3f:67:0e:c2:ea:e4:0e:d3:1a:34:37:78:c7:
        f2:84:4c:ee:0f:22:de:90:cf:17:fc:ce:be:c7:38:85:2f:ef:
        73:3d:61:18:9a:e0:67:6a:16:57:78:c5:02:40:10:a3:d4:29:
        62:74:6f:79:20:9c:f7:36:43:f9:7e:ee:b7:07:80:a5:25:f1:
        c2:5d:e8:f6:a3:b2:52:24:f9:84:34:2d:79:0c:14:52:c4:63:
        59:f7:b2:37:12:25:ec:3d:6a:bb:ca:47:05:c7:83:8a:d9:bd:
        94:16:c8:45:72:94:32:41:c9:28:86:72:88:f1:6c:02:a9:06:
        59:4d:a8:17:8b:17:73:24:6a:c6:c0:62:e5:22:a4:d3:78:be:
        75:b7:5e:b9:18:a4:2f:41:4f:13:90:01:6b:19:ed:df:7d:f4:
        b6:47:76:d5:23:00:02:68:db:49:21:2f:c9:b0:c0:ca:fb:04:
        c7:b7:bc:7d:a9:55:98:6a:ca:fe:f1:48:e4:9a:f5:b8:5b:6a:
        ce:d0:f9:f0:84:f9:01:49:31:d0:e0:eb:bb:62:34:3b:d3:34:
        a3:2c:6c:aa:15:b0:62:3d:66:0c:6c:ad:72:df:e4:75:dd:9f:
        a6:37:7b:43:95:8e:4b:88:fa:c3:80:91:f7:03:6b:c0:58:10:
        4a:a1:8b:79:1c:3a:96:82:eb:2b:86:37:7c:6a:0c:0e:b6:ef:
        1c:19:8f:ed:f0:07:bc:fc
-----BEGIN CERTIFICATE-----
MIIHXTCCBUWgAwIBAgIJAPBm6LFtvTlfMA0GCSqGSIb3DQEBCwUAMIGuMQswCQYD
VQQGEwJERTEfMB0GA1UECBMWTWVja2xlbmJ1cmctVm9ycG9tbWVybjEgMB4GA1UE
ChMXT3Blbm5ldCBJbml0aWF0aXZlIGUuVi4xEzARBgNVBAsTCk9wZW5uZXQgQ0Ex
GzAZBgNVBAMTEm9wZW5uZXQtcm9vdC5jYS5vbjEqMCgGCSqGSIb3DQEJARYbYWRt
aW5Ab3Blbm5ldC1pbml0aWF0aXZlLmRlMB4XDTEzMTIyMjAwMDAwMFoXDTIzMTIy
MTIzNTk1OVowgbIxCzAJBgNVBAYTAkRFMR8wHQYDVQQIExZNZWNrbGVuYnVyZy1W
b3Jwb21tZXJuMSAwHgYDVQQKExdPcGVubmV0IEluaXRpYXRpdmUgZS5WLjETMBEG
A1UECxMKT3Blbm5ldCBDQTEfMB0GA1UEAxMWb3Blbm5ldC12cG4tdXNlci5jYS5v
bjEqMCgGCSqGSIb3DQEJARYbYWRtaW5Ab3Blbm5ldC1pbml0aWF0aXZlLmRlMIIB
IjANBgkqhkiG9w0BAQEFAAOCAQ8AMIIBCgKCAQEAu4sdq03YrR04X46u9pzhkQc9
4sGBnwFIpgwO+hXmYA6L7G1QiM0hx/vcAShlSn71xdWACkrIbU2/BDqSzQ16yrNI
czQZM/lKUo/4qjkTjd9HO88Lvu8XZ+pmhkeLtXJ7VneTPNZohm5si8mkiVm9u8T+
S3Y1lYMFEt9awRcPieTH2gvxfLL90rl3H1WgrTzWY/5+/uN5o+fz6SEIEZtQZzUZ
8z+Y1teEQQZ6GwPVyX5cqOFmEjLjvm56KqySUV0yKyV07aFF06MUaW1iqRKFXviK
Dp31lvNRUWGViHK7bu6C6WBZHxphbtri3kIaldoX1QrCg0blzqKs4iFaKVMS7QID
AQABo4ICdjCCAnIwDwYDVR0TAQH/BAUwAwEB/zALBgNVHQ8EBAMCAQYwPAYDVR0f
BDUwMzAxoC+gLYYraHR0cDovL2NhLm9wZW5uZXQtaW5pdGlhdGl2ZS5kZS92cG51
c2VyLmNybDARBglghkgBhvhCAQEEBAMCAAcwLwYJYIZIAYb4QgECBCIWIGh0dHA6
Ly9jYS5vcGVubmV0LWluaXRpYXRpdmUuZGUvMDoGCWCGSAGG+EIBAwQtFitodHRw
Oi8vY2Eub3Blbm5ldC1pbml0aWF0aXZlLmRlL3ZwbnVzZXIuY3JsMDoGCWCGSAGG
+EIBBAQtFitodHRwOi8vY2Eub3Blbm5ldC1pbml0aWF0aXZlLmRlL3ZwbnVzZXIu
Y3JsMC8GCWCGSAGG+EIBCAQiFiBodHRwOi8vY2Eub3Blbm5ldC1pbml0aWF0aXZl
LmRlLzAiBglghkgBhvhCAQ0EFRYTT3Blbm5ldCBWUE4gVXNlciBDQTAdBgNVHQ4E
FgQU+nXEjYqq0YHhKRWmtFXjwDIF9scwgeMGA1UdIwSB2zCB2IAU+tqmJSQsIOfl
o18vn2vB6hka+MGhgbSkgbEwga4xCzAJBgNVBAYTAkRFMR8wHQYDVQQIExZNZWNr
bGVuYnVyZy1Wb3Jwb21tZXJuMSAwHgYDVQQKExdPcGVubmV0IEluaXRpYXRpdmUg
ZS5WLjETMBEGA1UECxMKT3Blbm5ldCBDQTEbMBkGA1UEAxMSb3Blbm5ldC1yb290
LmNhLm9uMSowKAYJKoZIhvcNAQkBFhthZG1pbkBvcGVubmV0LWluaXRpYXRpdmUu
ZGWCCQDQlBHKRbq18TANBgkqhkiG9w0BAQsFAAOCAgEAf1V3luyQfy7mG8/0pDo9
fy/eektPV7nL4ah64QVw8QsPcLs1hPM+XMljXu9C9eqUnSvwrqOnFQC0kJA6R6yM
XsQdI/HCa7ignEH/xfD85NtnthODbcMANghEszRNtlHh1cFhrSVJ3WiEU/Hn55MX
AUnIwD31Q7/glB0/kNHxVBkdpOqCuHJIk0GyDRHKUAxfgf/C4r7hPchSxmhtm5fh
MBvViDMxN/bCGSdt4MkAaQYa05G7oaWhffW2wNizcWrFrK9evs4YbGCdqJRmQJaH
1higWEOsekPTpVdB3sSMZ5U7Erg8DgY67sEz6HDsz9I/Zw7C6uQO0xo0N3jH8oRM
7g8i3pDPF/zOvsc4hS/vcz1hGJrgZ2oWV3jFAkAQo9QpYnRveSCc9zZD+X7utweA
pSXxwl3o9qOyUiT5hDQteQwUUsRjWfeyNxIl7D1qu8pHBceDitm9lBbIRXKUMkHJ
KIZyiPFsAqkGWU2oF4sXcyRqxsBi5SKk03i+dbdeuRikL0FPE5ABaxnt3330tkd2
1SMAAmjbSSEvybDAyvsEx7e8falVmGrK/vFI5Jr1uFtqztD58IT5AUkx0ODru2I0
O9M0oyxsqhWwYj1mDGytct/kdd2fpjd7Q5WOS4j6w4CR9wNrwFgQSqGLeRw6loLr
K4Y3fGoMDrbvHBmP7fAHvPw=
-----END CERTIFICATE-----
Certificate:
    Data:
        Version: 3 (0x2)
        Serial Number:
            d0:94:11:ca:45:ba:b5:f1
        Signature Algorithm: sha512WithRSAEncryption
        Issuer: C=DE, ST=Mecklenburg-Vorpommern, O=Opennet Initiative e.V., OU=Opennet CA, CN=opennet-root.ca.on/emailAddress=admin@opennet-initiative.de
        Validity
            Not Before: Dec 22 00:00:00 2013 GMT
            Not After : Dec 21 23:59:59 2033 GMT
        Subject: C=DE, ST=Mecklenburg-Vorpommern, O=Opennet Initiative e.V., OU=Opennet CA, CN=opennet-root.ca.on/emailAddress=admin@opennet-initiative.de
        Subject Public Key Info:
            Public Key Algorithm: rsaEncryption
            RSA Public Key: (4096 bit)
                Modulus (4096 bit):
                    00:d6:b7:ad:01:d9:5e:c6:d3:55:c5:93:1b:c8:62:
                    82:07:a7:31:12:24:77:e5:5b:73:05:94:96:2b:cc:
                    41:6b:b9:45:38:89:c5:e7:1c:72:58:1f:39:5f:19:
                    1e:31:88:c2:8b:9a:71:2e:c8:67:dd:c7:92:bb:ad:
                    cf:03:4c:83:5b:4a:dd:ec:8d:72:5a:d0:7f:f9:d3:
                    5e:41:b1:a8:83:3c:5f:27:22:b4:78:2a:77:77:0f:
                    4e:cb:8b:e6:cd:2c:e7:08:1b:82:3a:52:38:11:62:
                    9a:96:a6:ae:63:45:be:ab:35:24:86:e5:4d:59:72:
                    d3:c8:eb:4b:41:f1:43:a4:07:a6:21:0b:1f:44:4e:
                    34:69:ef:8c:27:9e:60:be:58:53:94:46:2d:9b:bf:
                    2e:33:8e:50:7a:cd:ee:ab:d2:27:34:df:75:0b:96:
                    6c:33:30:f0:ec:0d:9a:98:85:35:ad:42:ec:ff:86:
                    f6:fe:38:a7:8c:30:b9:2a:b2:47:74:3f:cc:7e:e0:
                    6a:d1:90:93:7c:8d:fb:8a:50:1b:78:08:2a:c1:0d:
                    ad:04:a9:fd:4f:39:15:0a:ac:61:87:37:de:61:78:
                    19:80:f8:23:22:be:95:01:0c:ab:50:f6:72:0a:eb:
                    38:f2:f4:30:e9:8f:7b:c6:02:3d:4d:fe:0a:15:9a:
                    18:b8:71:e8:d8:be:fc:31:39:aa:f6:76:20:7a:16:
                    91:8a:55:a3:55:1c:00:4e:fc:8d:ae:1d:6e:39:5c:
                    58:ae:a2:90:86:74:fd:e3:18:7f:04:ee:9e:23:89:
                    cc:75:91:42:93:68:15:9b:03:7e:a0:86:9a:54:74:
                    e6:54:b5:16:b5:ff:b7:e5:c5:f0:0f:a2:74:63:83:
                    80:ce:91:c0:f2:7f:cf:e5:ca:cf:80:fc:ac:ac:12:
                    f7:61:87:6a:7b:c5:68:f8:f5:93:50:0e:12:44:b4:
                    4d:db:d3:e1:0f:b4:65:10:55:6c:98:8d:09:03:5c:
                    06:1f:08:31:16:c8:ca:b6:51:4f:72:c1:0b:38:45:
                    fc:d0:81:8f:fc:1e:42:83:d7:41:2a:46:72:09:62:
                    41:60:ad:b2:de:9e:0c:18:17:bb:b2:ae:e6:ca:74:
                    10:06:87:c1:f7:e4:b3:9f:d9:a0:32:bb:86:a5:e9:
                    97:7c:c0:8d:45:e4:57:69:93:a1:15:ed:21:6b:aa:
                    c3:5e:bc:33:fd:ad:b5:86:ff:da:15:45:5e:ee:85:
                    28:1e:2f:c1:1b:b8:5d:e0:dd:ed:a2:2d:60:c9:8b:
                    87:71:b9:87:42:8d:bb:39:a0:5f:f2:42:36:96:7d:
                    60:80:f6:f8:85:c4:61:ca:e6:67:8a:39:dd:99:74:
                    58:47:51
                Exponent: 65537 (0x10001)
        X509v3 extensions:
            X509v3 Basic Constraints: critical
                CA:TRUE
            X509v3 Subject Key Identifier: 
                FA:DA:A6:25:24:2C:20:E7:E5:A3:5F:2F:9F:6B:C1:EA:19:1A:F8:C1
            X509v3 Key Usage: 
                Certificate Sign, CRL Sign
            X509v3 CRL Distribution Points: 
                URI:http://ca.opennet-initiative.de/root.crl

            Netscape Cert Type: 
                SSL CA, S/MIME CA, Object Signing CA
            Netscape Base Url: 
                http://ca.opennet-initiative.de/
            Netscape Revocation Url: 
                http://ca.opennet-initiative.de/root.crl
            Netscape CA Revocation Url: 
                http://ca.opennet-initiative.de/root.crl
            Netscape CA Policy Url: 
                http://ca.opennet-initiative.de/
            Netscape Comment: 
                Opennet Root CA
    Signature Algorithm: sha512WithRSAEncryption
        05:cf:01:9d:3a:ac:b6:a6:70:8c:72:57:66:da:97:ed:d6:f7:
        b2:24:9c:ce:75:5a:0d:db:26:86:fb:f5:2f:b3:08:b3:b2:c7:
        e2:77:5f:9b:61:1b:8c:12:7c:ee:e0:d1:51:f1:59:7f:66:4c:
        d3:c4:f0:06:d4:45:12:71:78:15:5e:75:d9:61:c5:fc:a7:10:
        8b:48:44:1a:a7:9e:80:ee:30:d6:3c:a2:1b:68:c7:ac:77:78:
        c6:d3:70:67:6a:d0:f8:80:0e:7b:8f:d9:a3:3c:75:6a:eb:f3:
        8e:77:83:d8:d0:a8:c6:49:b4:09:a5:47:14:d2:31:5f:3b:fd:
        a5:fa:c2:78:80:0c:b4:a0:f6:6e:27:5e:49:f1:43:d8:72:18:
        af:9d:23:a1:b0:ea:63:06:6e:59:ed:06:4b:93:a4:bb:a3:4a:
        36:f3:b8:5b:f9:dc:00:ec:49:46:c2:51:5b:da:e0:64:0e:71:
        22:7b:4b:f5:8b:a0:98:c3:c2:c0:e4:3e:f5:11:99:6c:3f:1f:
        64:51:7f:c5:2b:e6:8f:8f:84:20:f9:52:bc:b7:74:63:ee:c5:
        75:cc:7f:5c:91:6a:e6:5f:21:4c:df:3e:cc:75:b0:80:15:84:
        92:f7:02:52:c6:0f:10:f4:2a:75:64:d2:2b:64:c3:32:42:4b:
        2b:6d:90:1f:6a:cf:ee:69:20:70:30:27:7b:3b:ac:cf:e5:f3:
        37:cb:2c:29:d4:9d:3d:49:3f:3f:e2:75:33:f0:d8:41:24:c2:
        c1:4b:6c:05:92:9c:ad:84:77:04:63:86:5a:05:b6:82:92:45:
        b6:a6:02:8c:4c:fc:ee:e0:90:d2:a2:b3:e6:74:f5:88:7e:8a:
        05:35:8b:af:24:39:bd:7e:ef:4a:9d:30:7a:cb:94:dc:c7:42:
        ef:99:e2:74:03:0c:44:80:97:da:f6:75:68:1e:67:2a:3d:d2:
        cc:e0:98:2a:cb:fb:15:c6:f6:83:9f:b9:20:74:fc:db:38:8d:
        c3:94:a4:bb:71:ea:4c:1f:61:d3:4d:d6:a3:35:dd:41:cb:f8:
        70:97:ee:4c:ac:82:be:10:c1:17:59:1a:44:7d:76:91:aa:91:
        7e:48:79:3d:0d:d6:98:d9:e4:8f:76:89:fa:61:ec:de:a6:9b:
        7e:85:d0:88:16:2e:82:fa:1e:4b:82:3c:e3:01:c6:5e:fa:29:
        b3:1e:e8:a7:14:82:2f:69:93:da:02:93:12:50:44:01:cd:5a:
        3e:1b:e2:c4:2b:22:51:3b:62:c4:e1:1e:d4:71:8d:c8:63:7f:
        9f:bd:ce:00:43:76:d3:99:e5:c3:7d:32:03:ae:44:a5:ca:3e:
        b9:01:c8:4c:02:c8:e4:55
-----BEGIN CERTIFICATE-----
MIIHZjCCBU6gAwIBAgIJANCUEcpFurXxMA0GCSqGSIb3DQEBDQUAMIGuMQswCQYD
VQQGEwJERTEfMB0GA1UECBMWTWVja2xlbmJ1cmctVm9ycG9tbWVybjEgMB4GA1UE
ChMXT3Blbm5ldCBJbml0aWF0aXZlIGUuVi4xEzARBgNVBAsTCk9wZW5uZXQgQ0Ex
GzAZBgNVBAMTEm9wZW5uZXQtcm9vdC5jYS5vbjEqMCgGCSqGSIb3DQEJARYbYWRt
aW5Ab3Blbm5ldC1pbml0aWF0aXZlLmRlMB4XDTEzMTIyMjAwMDAwMFoXDTMzMTIy
MTIzNTk1OVowga4xCzAJBgNVBAYTAkRFMR8wHQYDVQQIExZNZWNrbGVuYnVyZy1W
b3Jwb21tZXJuMSAwHgYDVQQKExdPcGVubmV0IEluaXRpYXRpdmUgZS5WLjETMBEG
A1UECxMKT3Blbm5ldCBDQTEbMBkGA1UEAxMSb3Blbm5ldC1yb290LmNhLm9uMSow
KAYJKoZIhvcNAQkBFhthZG1pbkBvcGVubmV0LWluaXRpYXRpdmUuZGUwggIiMA0G
CSqGSIb3DQEBAQUAA4ICDwAwggIKAoICAQDWt60B2V7G01XFkxvIYoIHpzESJHfl
W3MFlJYrzEFruUU4icXnHHJYHzlfGR4xiMKLmnEuyGfdx5K7rc8DTINbSt3sjXJa
0H/5015BsaiDPF8nIrR4Knd3D07Li+bNLOcIG4I6UjgRYpqWpq5jRb6rNSSG5U1Z
ctPI60tB8UOkB6YhCx9ETjRp74wnnmC+WFOURi2bvy4zjlB6ze6r0ic033ULlmwz
MPDsDZqYhTWtQuz/hvb+OKeMMLkqskd0P8x+4GrRkJN8jfuKUBt4CCrBDa0Eqf1P
ORUKrGGHN95heBmA+CMivpUBDKtQ9nIK6zjy9DDpj3vGAj1N/goVmhi4cejYvvwx
Oar2diB6FpGKVaNVHABO/I2uHW45XFiuopCGdP3jGH8E7p4jicx1kUKTaBWbA36g
hppUdOZUtRa1/7flxfAPonRjg4DOkcDyf8/lys+A/KysEvdhh2p7xWj49ZNQDhJE
tE3b0+EPtGUQVWyYjQkDXAYfCDEWyMq2UU9ywQs4RfzQgY/8HkKD10EqRnIJYkFg
rbLengwYF7uyrubKdBAGh8H35LOf2aAyu4al6Zd8wI1F5Fdpk6EV7SFrqsNevDP9
rbWG/9oVRV7uhSgeL8EbuF3g3e2iLWDJi4dxuYdCjbs5oF/yQjaWfWCA9viFxGHK
5meKOd2ZdFhHUQIDAQABo4IBgzCCAX8wDwYDVR0TAQH/BAUwAwEB/zAdBgNVHQ4E
FgQU+tqmJSQsIOflo18vn2vB6hka+MEwCwYDVR0PBAQDAgEGMDkGA1UdHwQyMDAw
LqAsoCqGKGh0dHA6Ly9jYS5vcGVubmV0LWluaXRpYXRpdmUuZGUvcm9vdC5jcmww
EQYJYIZIAYb4QgEBBAQDAgAHMC8GCWCGSAGG+EIBAgQiFiBodHRwOi8vY2Eub3Bl
bm5ldC1pbml0aWF0aXZlLmRlLzA3BglghkgBhvhCAQMEKhYoaHR0cDovL2NhLm9w
ZW5uZXQtaW5pdGlhdGl2ZS5kZS9yb290LmNybDA3BglghkgBhvhCAQQEKhYoaHR0
cDovL2NhLm9wZW5uZXQtaW5pdGlhdGl2ZS5kZS9yb290LmNybDAvBglghkgBhvhC
AQgEIhYgaHR0cDovL2NhLm9wZW5uZXQtaW5pdGlhdGl2ZS5kZS8wHgYJYIZIAYb4
QgENBBEWD09wZW5uZXQgUm9vdCBDQTANBgkqhkiG9w0BAQ0FAAOCAgEABc8BnTqs
tqZwjHJXZtqX7db3siScznVaDdsmhvv1L7MIs7LH4ndfm2EbjBJ87uDRUfFZf2ZM
08TwBtRFEnF4FV512WHF/KcQi0hEGqeegO4w1jyiG2jHrHd4xtNwZ2rQ+IAOe4/Z
ozx1auvzjneD2NCoxkm0CaVHFNIxXzv9pfrCeIAMtKD2bideSfFD2HIYr50jobDq
YwZuWe0GS5Oku6NKNvO4W/ncAOxJRsJRW9rgZA5xIntL9YugmMPCwOQ+9RGZbD8f
ZFF/xSvmj4+EIPlSvLd0Y+7Fdcx/XJFq5l8hTN8+zHWwgBWEkvcCUsYPEPQqdWTS
K2TDMkJLK22QH2rP7mkgcDAnezusz+XzN8ssKdSdPUk/P+J1M/DYQSTCwUtsBZKc
rYR3BGOGWgW2gpJFtqYCjEz87uCQ0qKz5nT1iH6KBTWLryQ5vX7vSp0wesuU3MdC
75nidAMMRICX2vZ1aB5nKj3SzOCYKsv7Fcb2g5+5IHT82ziNw5Sku3HqTB9h003W
ozXdQcv4cJfuTKyCvhDBF1kaRH12kaqRfkh5PQ3WmNnkj3aJ+mHs3qabfoXQiBYu
gvoeS4I84wHGXvopsx7opxSCL2mT2gKTElBEAc1aPhvixCsiUTtixOEe1HGNyGN/
n73OAEN205nlw30yA65Epco+uQHITALI5FU=
-----END CERTIFICATE-----
